; Function Attrs: nounwind uwtable
define dso_local range(i32 0, 2) i32 @WPACKET_sub_allocate_bytes__(ptr noundef captures(none) %0, i64 noundef %1, ptr noundef captures(address_is_null) %2, i64 noundef %3) local_unnamed_addr #0 {
  %5 = alloca ptr, align 8
  call void @llvm.lifetime.start.p0(i64 8, ptr nonnull %5) #12
  %6 = getelementptr inbounds nuw i8, ptr %0, i64 40
  %7 = load ptr, ptr %6, align 8, !tbaa !4
  %.not.i = icmp eq ptr %7, null
  br i1 %.not.i, label %WPACKET_start_sub_packet_len__.exit.thread, label %8, !prof !24

8:                                                ; preds = %4
  %.not20.i = icmp eq i64 %3, 0
  br i1 %.not20.i, label %13, label %9

9:                                                ; preds = %8
  %10 = getelementptr inbounds nuw i8, ptr %0, i64 48
  %11 = load i8, ptr %10, align 8
  %12 = and i8 %11, 1
  %.not21.i = icmp eq i8 %12, 0
  br i1 %.not21.i, label %13, label %WPACKET_start_sub_packet_len__.exit.thread

13:                                               ; preds = %9, %8
  %14 = tail call noalias ptr @CRYPTO_zalloc(i64 noundef 40, ptr noundef nonnull @.str, i32 noundef 379) #12
  %15 = icmp eq ptr %14, null
  br i1 %15, label %WPACKET_start_sub_packet_len__.exit.thread, label %16

16:                                               ; preds = %13
  %17 = load ptr, ptr %6, align 8, !tbaa !4
  store ptr %17, ptr %14, align 8, !tbaa !25
  store ptr %14, ptr %6, align 8, !tbaa !4
  %18 = getelementptr inbounds nuw i8, ptr %0, i64 24
  %19 = load i64, ptr %18, align 8, !tbaa !16
  %20 = add i64 %19, %3
  %21 = getelementptr inbounds nuw i8, ptr %14, i64 24
  store i64 %20, ptr %21, align 8, !tbaa !27
  %22 = getelementptr inbounds nuw i8, ptr %14, i64 16
  store i64 %3, ptr %22, align 8, !tbaa !28
  %23 = getelementptr inbounds nuw i8, ptr %14, i64 8
  br i1 %.not20.i, label %WPACKET_start_sub_packet_len__.exit.thread11, label %WPACKET_start_sub_packet_len__.exit

WPACKET_start_sub_packet_len__.exit.thread11:     ; preds = %16
  store i64 0, ptr %23, align 8, !tbaa !29
  call void @llvm.lifetime.end.p0(i64 8, ptr nonnull %5) #12
  br label %25

WPACKET_start_sub_packet_len__.exit.thread:       ; preds = %4, %9, %13
  call void @llvm.lifetime.end.p0(i64 8, ptr nonnull %5) #12
  br label %34

WPACKET_start_sub_packet_len__.exit:              ; preds = %16
  store i64 %19, ptr %23, align 8, !tbaa !29
  %24 = call i32 @WPACKET_allocate_bytes(ptr noundef nonnull %0, i64 noundef %3, ptr noundef nonnull %5)
  call void @llvm.lifetime.end.p0(i64 8, ptr nonnull %5) #12
  %.not = icmp eq i32 %24, 0
  br i1 %.not, label %34, label %25

25:                                               ; preds = %WPACKET_start_sub_packet_len__.exit.thread11, %WPACKET_start_sub_packet_len__.exit
  %26 = call i32 @WPACKET_allocate_bytes(ptr noundef nonnull %0, i64 noundef %1, ptr noundef %2)
  %.not6 = icmp eq i32 %26, 0
  br i1 %.not6, label %34, label %27

27:                                               ; preds = %25
  %28 = load ptr, ptr %6, align 8, !tbaa !4
  %29 = icmp eq ptr %28, null
  br i1 %29, label %WPACKET_close.exit.thread, label %30

30:                                               ; preds = %27
  %31 = load ptr, ptr %28, align 8, !tbaa !25
  %32 = icmp eq ptr %31, null
  br i1 %32, label %WPACKET_close.exit.thread, label %WPACKET_close.exit

WPACKET_close.exit:                               ; preds = %30
  %33 = call fastcc i32 @wpacket_intern_close(ptr noundef nonnull %0, ptr noundef %28, i32 noundef 1)
  %.fr = freeze i32 %33
  %.not7 = icmp eq i32 %.fr, 0
  br i1 %.not7, label %WPACKET_close.exit.thread, label %34

WPACKET_close.exit.thread:                        ; preds = %27, %30, %WPACKET_close.exit
  br label %34

34:                                               ; preds = %WPACKET_close.exit.thread, %WPACKET_close.exit, %WPACKET_start_sub_packet_len__.exit.thread, %WPACKET_start_sub_packet_len__.exit, %25
  %.0 = phi i32 [ 0, %25 ], [ 0, %WPACKET_start_sub_packet_len__.exit ], [ 0, %WPACKET_start_sub_packet_len__.exit.thread ], [ 0, %WPACKET_close.exit.thread ], [ 1, %WPACKET_close.exit ]
  ret i32 %.0
}